; Function Attrs: mustprogress uwtable
define noalias noundef nonnull ptr @_ZNK11StringValue5cloneEv(ptr nocapture noundef nonnull readonly align 8 dereferenceable(16) %0) unnamed_addr #2 align 2 personality ptr @__gxx_personality_v0 {
  %2 = tail call noalias noundef nonnull dereferenceable(16) ptr @_Znwm(i64 noundef 16) #13
  store ptr getelementptr inbounds ({ [25 x ptr] }, ptr @_ZTV11StringValue, i64 0, i32 0, i64 2), ptr %2, align 8
  %3 = getelementptr inbounds i8, ptr %2, i64 8
  %4 = getelementptr inbounds i8, ptr %0, i64 8
  %5 = load ptr, ptr %4, align 8
  store ptr %5, ptr %3, align 8
  %6 = load atomic i32, ptr %5 monotonic, align 4
  %7 = add i32 %6, -1
  %or.cond.not.i.i.i = icmp ult i32 %7, -2
  br i1 %or.cond.not.i.i.i, label %8, label %_ZN11StringValueC2ERKS_.exit

8:                                                ; preds = %1
  %9 = atomicrmw add ptr %5, i32 1 seq_cst, align 4
  br label %_ZN11StringValueC2ERKS_.exit

_ZN11StringValueC2ERKS_.exit:                     ; preds = %1, %8
  ret ptr %2
}